; Function Attrs: mustprogress uwtable
define void @unum_setDoubleAttribute_75(ptr noundef %fmt, i32 noundef %attr, double noundef %newValue) local_unnamed_addr #0 {
entry:
  %0 = icmp eq ptr %fmt, null
  br i1 %0, label %if.end, label %dynamic_cast.end

dynamic_cast.end:                                 ; preds = %entry
  %1 = tail call ptr @__dynamic_cast(ptr nonnull %fmt, ptr nonnull @_ZTIN6icu_7512NumberFormatE, ptr nonnull @_ZTIN6icu_7513DecimalFormatE, i64 0) #10
  %cmp = icmp ne ptr %1, null
  %cmp1 = icmp eq i32 %attr, 12
  %or.cond = and i1 %cmp1, %cmp
  br i1 %or.cond, label %if.then, label %if.end

if.then:                                          ; preds = %dynamic_cast.end
  %vtable = load ptr, ptr %1, align 8
  %vfn = getelementptr inbounds i8, ptr %vtable, i64 408
  %2 = load ptr, ptr %vfn, align 8
  tail call void %2(ptr noundef nonnull align 8 dereferenceable(368) %1, double noundef %newValue)
  br label %if.end

if.end:                                           ; preds = %entry, %if.then, %dynamic_cast.end
  ret void
}